target datalayout = "e-m:e-p270:32:32-p271:32:32-p272:64:64-i64:64-i128:128-f80:128-n8:16:32:64-S128"
target triple = "x86_64-pc-linux-gnu"

%struct.re_pattern_buffer = type { ptr, ptr, ptr, i32, i32, ptr, ptr, i32, i32, i32, i32, i32, i32, i32, i32, i32, ptr, ptr, i32, ptr, i32, ptr, i32, i32, i32, i32, i32, i32, ptr, ptr, [256 x i8], i32, i32, i32, ptr }
%union.OnigValue = type { %struct.anon }
%struct.anon = type { ptr, ptr }
%struct.CalloutListEntry = type { i32, i32, i32, i32, ptr, ptr, i32, ptr, ptr, %union.anon }
%union.anon = type { %struct.anon.1 }
%struct.anon.1 = type { i32, i32, [4 x i32], [4 x %union.OnigValue] }
%struct.RegexExt = type { ptr, ptr, ptr, i32, i32, ptr }

; Function Attrs: nounwind uwtable
define dso_local ptr @onig_reg_callout_list_at(ptr noundef %0, i32 noundef %1) #0 {
  %3 = alloca ptr, align 8
  %4 = alloca ptr, align 8
  %5 = alloca i32, align 4
  %6 = alloca ptr, align 8
  %7 = alloca i32, align 4
  store ptr %0, ptr %4, align 8, !tbaa !33
  store i32 %1, ptr %5, align 4, !tbaa !10
  call void @llvm.lifetime.start.p0(i64 8, ptr %6) #8
  %8 = load ptr, ptr %4, align 8, !tbaa !33
  %9 = getelementptr inbounds nuw %struct.re_pattern_buffer, ptr %8, i32 0, i32 34
  %10 = load ptr, ptr %9, align 8, !tbaa !101
  store ptr %10, ptr %6, align 8, !tbaa !9
  %11 = load ptr, ptr %6, align 8, !tbaa !9
  %12 = icmp eq ptr %11, null
  br i1 %12, label %13, label %14

13:                                               ; preds = %2
  store ptr null, ptr %3, align 8
  store i32 1, ptr %7, align 4
  br label %33

14:                                               ; preds = %2
  %15 = load i32, ptr %5, align 4, !tbaa !10
  %16 = icmp sle i32 %15, 0
  br i1 %16, label %23, label %17

17:                                               ; preds = %14
  %18 = load i32, ptr %5, align 4, !tbaa !10
  %19 = load ptr, ptr %6, align 8, !tbaa !9
  %20 = getelementptr inbounds nuw %struct.RegexExt, ptr %19, i32 0, i32 3
  %21 = load i32, ptr %20, align 8, !tbaa !102
  %22 = icmp sgt i32 %18, %21
  br i1 %22, label %23, label %24

23:                                               ; preds = %17, %14
  store ptr null, ptr %3, align 8
  store i32 1, ptr %7, align 4
  br label %33

24:                                               ; preds = %17
  %25 = load i32, ptr %5, align 4, !tbaa !10
  %26 = add nsw i32 %25, -1
  store i32 %26, ptr %5, align 4, !tbaa !10
  %27 = load ptr, ptr %6, align 8, !tbaa !9
  %28 = getelementptr inbounds nuw %struct.RegexExt, ptr %27, i32 0, i32 5
  %29 = load ptr, ptr %28, align 8, !tbaa !104
  %30 = load i32, ptr %5, align 4, !tbaa !10
  %31 = sext i32 %30 to i64
  %32 = getelementptr inbounds %struct.CalloutListEntry, ptr %29, i64 %31
  store ptr %32, ptr %3, align 8
  store i32 1, ptr %7, align 4
  br label %33

33:                                               ; preds = %24, %23, %13
  call void @llvm.lifetime.end.p0(i64 8, ptr %6) #8
  %34 = load ptr, ptr %3, align 8
  ret ptr %34
}

; Function Attrs: nounwind uwtable
define dso_local ptr @onig_get_callout_tag_start(ptr noundef %0, i32 noundef %1) #0 {
  %3 = alloca ptr, align 8
  %4 = alloca ptr, align 8
  %5 = alloca i32, align 4
  %6 = alloca ptr, align 8
  %7 = alloca i32, align 4
  store ptr %0, ptr %4, align 8, !tbaa !33
  store i32 %1, ptr %5, align 4, !tbaa !10
  call void @llvm.lifetime.start.p0(i64 8, ptr %6) #8
  %8 = load ptr, ptr %4, align 8, !tbaa !33
  %9 = load i32, ptr %5, align 4, !tbaa !10
  %10 = call ptr @onig_reg_callout_list_at(ptr noundef %8, i32 noundef %9)
  store ptr %10, ptr %6, align 8, !tbaa !9
  %11 = load ptr, ptr %6, align 8, !tbaa !9
  %12 = icmp eq ptr %11, null
  br i1 %12, label %13, label %14

13:                                               ; preds = %2
  store ptr null, ptr %3, align 8
  store i32 1, ptr %7, align 4
  br label %18

14:                                               ; preds = %2
  %15 = load ptr, ptr %6, align 8, !tbaa !9
  %16 = getelementptr inbounds nuw %struct.CalloutListEntry, ptr %15, i32 0, i32 4
  %17 = load ptr, ptr %16, align 8, !tbaa !105
  store ptr %17, ptr %3, align 8
  store i32 1, ptr %7, align 4
  br label %18

18:                                               ; preds = %14, %13
  call void @llvm.lifetime.end.p0(i64 8, ptr %6) #8
  %19 = load ptr, ptr %3, align 8
  ret ptr %19
}