; Function Attrs: mustprogress nofree norecurse nosync nounwind willreturn memory(read, inaccessiblemem: none) uwtable
define dso_local ptr @onig_get_callout_tag_start(ptr noundef readonly captures(none) %0, i32 noundef %1) local_unnamed_addr #13 {
  %3 = getelementptr inbounds nuw i8, ptr %0, i64 448
  %4 = load ptr, ptr %3, align 8, !tbaa !89
  %5 = icmp eq ptr %4, null
  %6 = icmp slt i32 %1, 1
  %or.cond.i = or i1 %6, %5
  br i1 %or.cond.i, label %onig_reg_callout_list_at.exit.thread, label %7

7:                                                ; preds = %2
  %8 = getelementptr inbounds nuw i8, ptr %4, i64 24
  %9 = load i32, ptr %8, align 8, !tbaa !90
  %10 = icmp sgt i32 %1, %9
  br i1 %10, label %onig_reg_callout_list_at.exit.thread, label %onig_reg_callout_list_at.exit

onig_reg_callout_list_at.exit:                    ; preds = %7
  %11 = getelementptr inbounds nuw i8, ptr %4, i64 32
  %12 = load ptr, ptr %11, align 8, !tbaa !92
  %13 = zext nneg i32 %1 to i64
  %14 = getelementptr %struct.CalloutListEntry, ptr %12, i64 %13
  %15 = getelementptr i8, ptr %14, i64 -144
  %16 = icmp eq ptr %15, null
  br i1 %16, label %onig_reg_callout_list_at.exit.thread, label %17

17:                                               ; preds = %onig_reg_callout_list_at.exit
  %18 = getelementptr i8, ptr %14, i64 -128
  %19 = load ptr, ptr %18, align 8, !tbaa !95
  br label %onig_reg_callout_list_at.exit.thread

onig_reg_callout_list_at.exit.thread:             ; preds = %7, %2, %onig_reg_callout_list_at.exit, %17
  %.0 = phi ptr [ %19, %17 ], [ null, %onig_reg_callout_list_at.exit ], [ null, %2 ], [ null, %7 ]
  ret ptr %.0
}